; ModuleID = 'source-C-CXX/29/1461.cpp'
source_filename = "source-C-CXX/29/1461.cpp"
target datalayout = "e-m:e-p270:32:32-p271:32:32-p272:64:64-i64:64-f80:128-n8:16:32:64-S128"
target triple = "x86_64-pc-linux-gnu"

%"class.std::ios_base::Init" = type { i8 }
%"class.std::basic_istream" = type { i32 (...)**, i64, %"class.std::basic_ios" }
%"class.std::basic_ios" = type { %"class.std::ios_base", %"class.std::basic_ostream"*, i8, i8, %"class.std::basic_streambuf"*, %"class.std::ctype"*, %"class.std::num_put"*, %"class.std::num_get"* }
%"class.std::ios_base" = type { i32 (...)**, i64, i64, i32, i32, i32, %"struct.std::ios_base::_Callback_list"*, %"struct.std::ios_base::_Words", [8 x %"struct.std::ios_base::_Words"], i32, %"struct.std::ios_base::_Words"*, %"class.std::locale" }
%"struct.std::ios_base::_Callback_list" = type { %"struct.std::ios_base::_Callback_list"*, void (i32, %"class.std::ios_base"*, i32)*, i32, i32 }
%"struct.std::ios_base::_Words" = type { i8*, i64 }
%"class.std::locale" = type { %"class.std::locale::_Impl"* }
%"class.std::locale::_Impl" = type { i32, %"class.std::locale::facet"**, i64, %"class.std::locale::facet"**, i8** }
%"class.std::locale::facet" = type <{ i32 (...)**, i32, [4 x i8] }>
%"class.std::basic_ostream" = type { i32 (...)**, %"class.std::basic_ios" }
%"class.std::basic_streambuf" = type { i32 (...)**, i8*, i8*, i8*, i8*, i8*, i8*, %"class.std::locale" }
%"class.std::ctype" = type <{ %"class.std::locale::facet.base", [4 x i8], %struct.__locale_struct*, i8, [7 x i8], i32*, i32*, i16*, i8, [256 x i8], [256 x i8], i8, [6 x i8] }>
%"class.std::locale::facet.base" = type <{ i32 (...)**, i32 }>
%struct.__locale_struct = type { [13 x %struct.__locale_data*], i16*, i32*, i32*, [13 x i8*] }
%struct.__locale_data = type opaque
%"class.std::num_put" = type { %"class.std::locale::facet.base", [4 x i8] }
%"class.std::num_get" = type { %"class.std::locale::facet.base", [4 x i8] }

@_ZStL8__ioinit = internal global %"class.std::ios_base::Init" zeroinitializer, align 1
@__dso_handle = external hidden global i8
@_ZSt3cin = external global %"class.std::basic_istream", align 8
@_ZSt4cout = external global %"class.std::basic_ostream", align 8
@llvm.global_ctors = appending global [1 x { i32, void ()*, i8* }] [{ i32, void ()*, i8* } { i32 65535, void ()* @_GLOBAL__sub_I_1461.cpp, i8* null }]

declare void @_ZNSt8ios_base4InitC1Ev(%"class.std::ios_base::Init"* nonnull align 1 dereferenceable(1)) unnamed_addr #0

; Function Attrs: nounwind
declare void @_ZNSt8ios_base4InitD1Ev(%"class.std::ios_base::Init"* nonnull align 1 dereferenceable(1)) unnamed_addr #1

; Function Attrs: nofree nounwind
declare i32 @__cxa_atexit(void (i8*)*, i8*, i8*) local_unnamed_addr #2

; Function Attrs: mustprogress nofree norecurse nosync nounwind readnone sspstrong uwtable willreturn
define dso_local i32 @_Z5seveni(i32 %0) local_unnamed_addr #3 {
  %2 = icmp slt i32 %0, 1
  br i1 %2, label %62, label %3

3:                                                ; preds = %1
  %4 = icmp ult i32 %0, 8
  br i1 %4, label %43, label %5

5:                                                ; preds = %3
  %6 = and i32 %0, -8
  %7 = or i32 %6, 1
  br label %8

8:                                                ; preds = %8, %5
  %9 = phi i32 [ 0, %5 ], [ %36, %8 ]
  %10 = phi <4 x i32> [ zeroinitializer, %5 ], [ %34, %8 ]
  %11 = phi <4 x i32> [ zeroinitializer, %5 ], [ %35, %8 ]
  %12 = phi <4 x i32> [ <i32 1, i32 2, i32 3, i32 4>, %5 ], [ %37, %8 ]
  %13 = add <4 x i32> %12, <i32 4, i32 4, i32 4, i32 4>
  %14 = urem <4 x i32> %12, <i32 10, i32 10, i32 10, i32 10>
  %15 = urem <4 x i32> %13, <i32 10, i32 10, i32 10, i32 10>
  %16 = icmp eq <4 x i32> %14, <i32 7, i32 7, i32 7, i32 7>
  %17 = icmp eq <4 x i32> %15, <i32 7, i32 7, i32 7, i32 7>
  %18 = add nsw <4 x i32> %12, <i32 -70, i32 -70, i32 -70, i32 -70>
  %19 = add <4 x i32> %12, <i32 -66, i32 -66, i32 -66, i32 -66>
  %20 = icmp ult <4 x i32> %18, <i32 10, i32 10, i32 10, i32 10>
  %21 = icmp ult <4 x i32> %19, <i32 10, i32 10, i32 10, i32 10>
  %22 = select <4 x i1> %16, <4 x i1> <i1 true, i1 true, i1 true, i1 true>, <4 x i1> %20
  %23 = select <4 x i1> %17, <4 x i1> <i1 true, i1 true, i1 true, i1 true>, <4 x i1> %21
  %24 = urem <4 x i32> %12, <i32 7, i32 7, i32 7, i32 7>
  %25 = urem <4 x i32> %13, <i32 7, i32 7, i32 7, i32 7>
  %26 = icmp eq <4 x i32> %24, zeroinitializer
  %27 = icmp eq <4 x i32> %25, zeroinitializer
  %28 = select <4 x i1> %22, <4 x i1> <i1 true, i1 true, i1 true, i1 true>, <4 x i1> %26
  %29 = select <4 x i1> %23, <4 x i1> <i1 true, i1 true, i1 true, i1 true>, <4 x i1> %27
  %30 = mul nsw <4 x i32> %12, %12
  %31 = mul nsw <4 x i32> %13, %13
  %32 = select <4 x i1> %28, <4 x i32> zeroinitializer, <4 x i32> %30
  %33 = select <4 x i1> %29, <4 x i32> zeroinitializer, <4 x i32> %31
  %34 = add <4 x i32> %32, %10
  %35 = add <4 x i32> %33, %11
  %36 = add nuw i32 %9, 8
  %37 = add <4 x i32> %12, <i32 8, i32 8, i32 8, i32 8>
  %38 = icmp eq i32 %36, %6
  br i1 %38, label %39, label %8, !llvm.loop !5

39:                                               ; preds = %8
  %40 = add <4 x i32> %35, %34
  %41 = call i32 @llvm.vector.reduce.add.v4i32(<4 x i32> %40)
  %42 = icmp eq i32 %6, %0
  br i1 %42, label %62, label %43

43:                                               ; preds = %3, %39
  %44 = phi i32 [ 0, %3 ], [ %41, %39 ]
  %45 = phi i32 [ 1, %3 ], [ %7, %39 ]
  br label %46

46:                                               ; preds = %43, %46
  %47 = phi i32 [ %59, %46 ], [ %44, %43 ]
  %48 = phi i32 [ %60, %46 ], [ %45, %43 ]
  %49 = urem i32 %48, 10
  %50 = icmp eq i32 %49, 7
  %51 = add nsw i32 %48, -70
  %52 = icmp ult i32 %51, 10
  %53 = select i1 %50, i1 true, i1 %52
  %54 = urem i32 %48, 7
  %55 = icmp eq i32 %54, 0
  %56 = select i1 %53, i1 true, i1 %55
  %57 = mul nsw i32 %48, %48
  %58 = select i1 %56, i32 0, i32 %57
  %59 = add nuw nsw i32 %58, %47
  %60 = add nuw i32 %48, 1
  %61 = icmp eq i32 %48, %0
  br i1 %61, label %62, label %46, !llvm.loop !8

62:                                               ; preds = %46, %39, %1
  %63 = phi i32 [ 0, %1 ], [ %41, %39 ], [ %59, %46 ]
  ret i32 %63
}

; Function Attrs: argmemonly mustprogress nofree nosync nounwind willreturn
declare void @llvm.lifetime.start.p0i8(i64 immarg, i8* nocapture) #4

; Function Attrs: argmemonly mustprogress nofree nosync nounwind willreturn
declare void @llvm.lifetime.end.p0i8(i64 immarg, i8* nocapture) #4

; Function Attrs: mustprogress norecurse sspstrong uwtable
define dso_local i32 @main() local_unnamed_addr #5 {
  %1 = alloca i32, align 4
  %2 = bitcast i32* %1 to i8*
  call void @llvm.lifetime.start.p0i8(i64 4, i8* nonnull %2) #9
  %3 = call nonnull align 8 dereferenceable(16) %"class.std::basic_istream"* @_ZNSirsERi(%"class.std::basic_istream"* nonnull align 8 dereferenceable(16) @_ZSt3cin, i32* nonnull align 4 dereferenceable(4) %1)
  %4 = load i32, i32* %1, align 4, !tbaa !10
  %5 = icmp slt i32 %4, 1
  br i1 %5, label %65, label %6

6:                                                ; preds = %0
  %7 = icmp ult i32 %4, 8
  br i1 %7, label %46, label %8

8:                                                ; preds = %6
  %9 = and i32 %4, -8
  %10 = or i32 %9, 1
  br label %11

11:                                               ; preds = %11, %8
  %12 = phi i32 [ 0, %8 ], [ %39, %11 ]
  %13 = phi <4 x i32> [ zeroinitializer, %8 ], [ %37, %11 ]
  %14 = phi <4 x i32> [ zeroinitializer, %8 ], [ %38, %11 ]
  %15 = phi <4 x i32> [ <i32 1, i32 2, i32 3, i32 4>, %8 ], [ %40, %11 ]
  %16 = add <4 x i32> %15, <i32 4, i32 4, i32 4, i32 4>
  %17 = urem <4 x i32> %15, <i32 10, i32 10, i32 10, i32 10>
  %18 = urem <4 x i32> %16, <i32 10, i32 10, i32 10, i32 10>
  %19 = icmp eq <4 x i32> %17, <i32 7, i32 7, i32 7, i32 7>
  %20 = icmp eq <4 x i32> %18, <i32 7, i32 7, i32 7, i32 7>
  %21 = add nsw <4 x i32> %15, <i32 -70, i32 -70, i32 -70, i32 -70>
  %22 = add <4 x i32> %15, <i32 -66, i32 -66, i32 -66, i32 -66>
  %23 = icmp ult <4 x i32> %21, <i32 10, i32 10, i32 10, i32 10>
  %24 = icmp ult <4 x i32> %22, <i32 10, i32 10, i32 10, i32 10>
  %25 = select <4 x i1> %19, <4 x i1> <i1 true, i1 true, i1 true, i1 true>, <4 x i1> %23
  %26 = select <4 x i1> %20, <4 x i1> <i1 true, i1 true, i1 true, i1 true>, <4 x i1> %24
  %27 = urem <4 x i32> %15, <i32 7, i32 7, i32 7, i32 7>
  %28 = urem <4 x i32> %16, <i32 7, i32 7, i32 7, i32 7>
  %29 = icmp eq <4 x i32> %27, zeroinitializer
  %30 = icmp eq <4 x i32> %28, zeroinitializer
  %31 = select <4 x i1> %25, <4 x i1> <i1 true, i1 true, i1 true, i1 true>, <4 x i1> %29
  %32 = select <4 x i1> %26, <4 x i1> <i1 true, i1 true, i1 true, i1 true>, <4 x i1> %30
  %33 = mul nsw <4 x i32> %15, %15
  %34 = mul nsw <4 x i32> %16, %16
  %35 = select <4 x i1> %31, <4 x i32> zeroinitializer, <4 x i32> %33
  %36 = select <4 x i1> %32, <4 x i32> zeroinitializer, <4 x i32> %34
  %37 = add <4 x i32> %35, %13
  %38 = add <4 x i32> %36, %14
  %39 = add nuw i32 %12, 8
  %40 = add <4 x i32> %15, <i32 8, i32 8, i32 8, i32 8>
  %41 = icmp eq i32 %39, %9
  br i1 %41, label %42, label %11, !llvm.loop !14

42:                                               ; preds = %11
  %43 = add <4 x i32> %38, %37
  %44 = call i32 @llvm.vector.reduce.add.v4i32(<4 x i32> %43)
  %45 = icmp eq i32 %4, %9
  br i1 %45, label %65, label %46

46:                                               ; preds = %6, %42
  %47 = phi i32 [ 0, %6 ], [ %44, %42 ]
  %48 = phi i32 [ 1, %6 ], [ %10, %42 ]
  br label %49

49:                                               ; preds = %46, %49
  %50 = phi i32 [ %62, %49 ], [ %47, %46 ]
  %51 = phi i32 [ %63, %49 ], [ %48, %46 ]
  %52 = urem i32 %51, 10
  %53 = icmp eq i32 %52, 7
  %54 = add nsw i32 %51, -70
  %55 = icmp ult i32 %54, 10
  %56 = select i1 %53, i1 true, i1 %55
  %57 = urem i32 %51, 7
  %58 = icmp eq i32 %57, 0
  %59 = select i1 %56, i1 true, i1 %58
  %60 = mul nsw i32 %51, %51
  %61 = select i1 %59, i32 0, i32 %60
  %62 = add nuw nsw i32 %61, %50
  %63 = add nuw i32 %51, 1
  %64 = icmp eq i32 %51, %4
  br i1 %64, label %65, label %49, !llvm.loop !15

65:                                               ; preds = %49, %42, %0
  %66 = phi i32 [ 0, %0 ], [ %44, %42 ], [ %62, %49 ]
  %67 = call nonnull align 8 dereferenceable(8) %"class.std::basic_ostream"* @_ZNSolsEi(%"class.std::basic_ostream"* nonnull align 8 dereferenceable(8) @_ZSt4cout, i32 %66)
  %68 = bitcast %"class.std::basic_ostream"* %67 to i8**
  %69 = load i8*, i8** %68, align 8, !tbaa !16
  %70 = getelementptr i8, i8* %69, i64 -24
  %71 = bitcast i8* %70 to i64*
  %72 = load i64, i64* %71, align 8
  %73 = bitcast %"class.std::basic_ostream"* %67 to i8*
  %74 = add nsw i64 %72, 240
  %75 = getelementptr inbounds i8, i8* %73, i64 %74
  %76 = bitcast i8* %75 to %"class.std::ctype"**
  %77 = load %"class.std::ctype"*, %"class.std::ctype"** %76, align 8, !tbaa !18
  %78 = icmp eq %"class.std::ctype"* %77, null
  br i1 %78, label %79, label %80

79:                                               ; preds = %65
  call void @_ZSt16__throw_bad_castv() #10
  unreachable

80:                                               ; preds = %65
  %81 = getelementptr inbounds %"class.std::ctype", %"class.std::ctype"* %77, i64 0, i32 8
  %82 = load i8, i8* %81, align 8, !tbaa !22
  %83 = icmp eq i8 %82, 0
  br i1 %83, label %87, label %84

84:                                               ; preds = %80
  %85 = getelementptr inbounds %"class.std::ctype", %"class.std::ctype"* %77, i64 0, i32 9, i64 10
  %86 = load i8, i8* %85, align 1, !tbaa !24
  br label %93

87:                                               ; preds = %80
  call void @_ZNKSt5ctypeIcE13_M_widen_initEv(%"class.std::ctype"* nonnull align 8 dereferenceable(570) %77)
  %88 = bitcast %"class.std::ctype"* %77 to i8 (%"class.std::ctype"*, i8)***
  %89 = load i8 (%"class.std::ctype"*, i8)**, i8 (%"class.std::ctype"*, i8)*** %88, align 8, !tbaa !16
  %90 = getelementptr inbounds i8 (%"class.std::ctype"*, i8)*, i8 (%"class.std::ctype"*, i8)** %89, i64 6
  %91 = load i8 (%"class.std::ctype"*, i8)*, i8 (%"class.std::ctype"*, i8)** %90, align 8
  %92 = call signext i8 %91(%"class.std::ctype"* nonnull align 8 dereferenceable(570) %77, i8 signext 10)
  br label %93

93:                                               ; preds = %84, %87
  %94 = phi i8 [ %86, %84 ], [ %92, %87 ]
  %95 = call nonnull align 8 dereferenceable(8) %"class.std::basic_ostream"* @_ZNSo3putEc(%"class.std::basic_ostream"* nonnull align 8 dereferenceable(8) %67, i8 signext %94)
  %96 = call nonnull align 8 dereferenceable(8) %"class.std::basic_ostream"* @_ZNSo5flushEv(%"class.std::basic_ostream"* nonnull align 8 dereferenceable(8) %95)
  call void @llvm.lifetime.end.p0i8(i64 4, i8* nonnull %2) #9
  ret i32 0
}

declare nonnull align 8 dereferenceable(16) %"class.std::basic_istream"* @_ZNSirsERi(%"class.std::basic_istream"* nonnull align 8 dereferenceable(16), i32* nonnull align 4 dereferenceable(4)) local_unnamed_addr #0

declare nonnull align 8 dereferenceable(8) %"class.std::basic_ostream"* @_ZNSolsEi(%"class.std::basic_ostream"* nonnull align 8 dereferenceable(8), i32) local_unnamed_addr #0

declare nonnull align 8 dereferenceable(8) %"class.std::basic_ostream"* @_ZNSo3putEc(%"class.std::basic_ostream"* nonnull align 8 dereferenceable(8), i8 signext) local_unnamed_addr #0

declare nonnull align 8 dereferenceable(8) %"class.std::basic_ostream"* @_ZNSo5flushEv(%"class.std::basic_ostream"* nonnull align 8 dereferenceable(8)) local_unnamed_addr #0

; Function Attrs: noreturn
declare void @_ZSt16__throw_bad_castv() local_unnamed_addr #6

declare void @_ZNKSt5ctypeIcE13_M_widen_initEv(%"class.std::ctype"* nonnull align 8 dereferenceable(570)) local_unnamed_addr #0

; Function Attrs: sspstrong uwtable
define internal void @_GLOBAL__sub_I_1461.cpp() #7 section ".text.startup" {
  tail call void @_ZNSt8ios_base4InitC1Ev(%"class.std::ios_base::Init"* nonnull align 1 dereferenceable(1) @_ZStL8__ioinit)
  %1 = tail call i32 @__cxa_atexit(void (i8*)* bitcast (void (%"class.std::ios_base::Init"*)* @_ZNSt8ios_base4InitD1Ev to void (i8*)*), i8* getelementptr inbounds (%"class.std::ios_base::Init", %"class.std::ios_base::Init"* @_ZStL8__ioinit, i64 0, i32 0), i8* nonnull @__dso_handle) #9
  ret void
}

; Function Attrs: nofree nosync nounwind readnone willreturn
declare i32 @llvm.vector.reduce.add.v4i32(<4 x i32>) #8


!llvm.module.flags = !{!0, !1, !2, !3}
!llvm.ident = !{!4}

!0 = !{i32 1, !"wchar_size", i32 4}
!1 = !{i32 7, !"PIC Level", i32 2}
!2 = !{i32 7, !"PIE Level", i32 2}
!3 = !{i32 7, !"uwtable", i32 1}
!4 = !{!"clang version 13.0.0"}
!5 = distinct !{!5, !6, !7}
!6 = !{!"llvm.loop.mustprogress"}
!7 = !{!"llvm.loop.isvectorized", i32 1}
!8 = distinct !{!8, !6, !9, !7}
!9 = !{!"llvm.loop.unroll.runtime.disable"}
!10 = !{!11, !11, i64 0}
!11 = !{!"int", !12, i64 0}
!12 = !{!"omnipotent char", !13, i64 0}
!13 = !{!"Simple C++ TBAA"}
!14 = distinct !{!14, !6, !7}
!15 = distinct !{!15, !6, !9, !7}
!16 = !{!17, !17, i64 0}
!17 = !{!"vtable pointer", !13, i64 0}
!18 = !{!19, !20, i64 240}
!19 = !{!"_ZTSSt9basic_iosIcSt11char_traitsIcEE", !20, i64 216, !12, i64 224, !21, i64 225, !20, i64 232, !20, i64 240, !20, i64 248, !20, i64 256}
!20 = !{!"any pointer", !12, i64 0}
!21 = !{!"bool", !12, i64 0}
!22 = !{!23, !12, i64 56}
!23 = !{!"_ZTSSt5ctypeIcE", !20, i64 16, !21, i64 24, !20, i64 32, !20, i64 40, !20, i64 48, !12, i64 56, !12, i64 57, !12, i64 313, !12, i64 569}
!24 = !{!12, !12, i64 0}
